Certificate:
    Data:
        Version: 3 (0x2)
        Serial Number: 33 (0x21)
        Signature Algorithm: sha1WithRSAEncryption
        Issuer: C=US, O=Google, OU=Enterprise, CN=Enterprise Subordinate CA
        Validity
            Not Before: Jan 27 12:11:56 2021 GMT
            Not After : Jul 20 12:11:56 2026 GMT
        Subject: C=US, O=Google, OU=Enterprise, CN=grpc_client.domain.com
        Subject Public Key Info:
            Public Key Algorithm: rsaEncryption
                RSA Public-Key: (2048 bit)
                Modulus:
                    00:c3:91:ac:70:f2:80:f3:7b:a3:e3:d4:96:e1:ca:
                    3e:90:01:cc:53:a8:61:40:31:b2:2a:16:8a:58:18:
                    19:7e:68:78:4d:61:b0:e1:84:cc:80:ef:94:ed:c6:
                    f6:da:68:e1:f0:e5:96:53:36:09:fa:33:4e:36:d4:
                    82:7a:19:8e:1b:e1:c7:f1:9f:a9:bf:54:fe:23:45:
                    25:0d:eb:36:7d:fe:08:ca:a0:22:22:04:6c:35:77:
                    01:78:3f:49:98:c0:34:a2:c9:d8:da:7a:03:3f:13:
                    3c:e8:bb:37:c8:5e:a5:b0:bd:4d:f0:88:86:9e:0b:
                    fd:c7:28:28:82:2e:67:fb:5c:10:5c:f0:c5:59:65:
                    14:f5:81:6f:e4:82:c2:79:d8:fd:10:16:bf:63:22:
                    e2:ab:91:c4:b6:f7:09:9f:ba:0b:b5:bd:27:68:eb:
                    8f:4d:0c:b3:83:1d:e9:9e:76:53:53:1a:da:23:1e:
                    c8:88:0d:f9:86:ea:b9:52:03:c0:54:41:13:11:2e:
                    ab:e1:60:15:5b:4b:d9:5c:33:dd:68:db:29:e0:b1:
                    c5:76:7e:3a:ae:51:49:ed:b7:5d:84:65:13:25:8b:
                    ad:81:c3:24:45:4f:46:65:3f:94:66:38:00:2c:c2:
                    63:9e:ba:a9:be:af:63:8d:a6:c6:de:88:af:d5:73:
                    e3:eb
                Exponent: 65537 (0x10001)
        X509v3 extensions:
            X509v3 Key Usage: critical
                Digital Signature
            X509v3 Basic Constraints: 
                CA:FALSE
            X509v3 Extended Key Usage: 
                TLS Web Client Authentication
            X509v3 Subject Key Identifier: 
                E0:D0:EA:81:AA:E1:69:E4:E8:07:23:62:9D:68:EE:94:03:E2:7D:FD
            X509v3 Authority Key Identifier: 
                keyid:BF:E1:1C:F0:22:48:8F:FC:3B:CF:5D:D9:ED:AE:88:70:21:DF:DD:86

            Authority Information Access: 
                CA Issuers - URI:http://pki.esodemoapp2.com/ca/tls-ca.cer

            X509v3 CRL Distribution Points: 

                Full Name:
                  URI:http://pki.esodemoapp2.com/ca/tls-ca.crl

            X509v3 Subject Alternative Name: 
                DNS:grpc_client.domain.com
    Signature Algorithm: sha1WithRSAEncryption
         6d:d0:ca:b0:23:24:e7:68:29:83:3d:13:98:8c:15:70:10:ba:
         a1:ea:e2:e3:b7:91:ec:0c:c6:97:f7:64:14:20:78:8b:c4:fe:
         01:83:7e:6d:5b:d8:0d:11:96:14:ce:28:3a:75:b4:4e:11:d8:
         2d:7e:53:30:b5:0f:18:d1:02:f9:f2:ac:d4:e1:24:e6:13:a6:
         81:12:76:99:c9:e4:f9:5f:e7:52:6a:c2:56:26:3c:7a:26:3f:
         e8:a9:8e:31:fb:72:8f:85:f2:17:9b:ee:96:85:ce:53:cc:b7:
         ce:36:dd:7b:97:3e:df:c4:f3:07:ae:df:dc:f3:75:43:39:20:
         bf:ef:38:5a:29:40:fa:81:85:ce:e2:ee:29:92:01:c0:33:c6:
         52:0b:22:dd:53:1a:2f:57:8d:9b:5b:a5:66:94:0d:ce:b3:f5:
         71:3a:b2:f0:f2:d5:e6:79:0c:a0:85:ae:8e:7b:5e:b8:1a:26:
         fa:45:cb:81:be:1d:9c:2e:9c:63:e3:cc:30:50:ba:1a:f8:11:
         be:36:62:59:89:6b:91:ab:21:1a:22:a1:53:4e:5f:c9:76:4c:
         2f:76:e5:f6:dd:8c:39:1e:97:bc:63:a0:6a:2c:0e:3c:0c:fe:
         c5:a2:58:de:ac:54:d3:22:82:99:88:3f:13:a8:30:2a:f4:55:
         9c:bb:9f:45
-----BEGIN CERTIFICATE-----
MIIEQDCCAyigAwIBAgIBITANBgkqhkiG9w0BAQUFADBXMQswCQYDVQQGEwJVUzEP
MA0GA1UECgwGR29vZ2xlMRMwEQYDVQQLDApFbnRlcnByaXNlMSIwIAYDVQQDDBlF
bnRlcnByaXNlIFN1Ym9yZGluYXRlIENBMB4XDTIxMDEyNzEyMTE1NloXDTI2MDcy
MDEyMTE1NlowVDELMAkGA1UEBhMCVVMxDzANBgNVBAoMBkdvb2dsZTETMBEGA1UE
CwwKRW50ZXJwcmlzZTEfMB0GA1UEAwwWZ3JwY19jbGllbnQuZG9tYWluLmNvbTCC
ASIwDQYJKoZIhvcNAQEBBQADggEPADCCAQoCggEBAMORrHDygPN7o+PUluHKPpAB
zFOoYUAxsioWilgYGX5oeE1hsOGEzIDvlO3G9tpo4fDlllM2CfozTjbUgnoZjhvh
x/Gfqb9U/iNFJQ3rNn3+CMqgIiIEbDV3AXg/SZjANKLJ2Np6Az8TPOi7N8hepbC9
TfCIhp4L/ccoKIIuZ/tcEFzwxVllFPWBb+SCwnnY/RAWv2Mi4quRxLb3CZ+6C7W9
J2jrj00Ms4Md6Z52U1Ma2iMeyIgN+YbquVIDwFRBExEuq+FgFVtL2Vwz3WjbKeCx
xXZ+Oq5RSe23XYRlEyWLrYHDJEVPRmU/lGY4ACzCY566qb6vY42mxt6Ir9Vz4+sC
AwEAAaOCARgwggEUMA4GA1UdDwEB/wQEAwIHgDAJBgNVHRMEAjAAMBMGA1UdJQQM
MAoGCCsGAQUFBwMCMB0GA1UdDgQWBBTg0OqBquFp5OgHI2KdaO6UA+J9/TAfBgNV
HSMEGDAWgBS/4RzwIkiP/DvPXdntrohwId/dhjBEBggrBgEFBQcBAQQ4MDYwNAYI
KwYBBQUHMAKGKGh0dHA6Ly9wa2kuZXNvZGVtb2FwcDIuY29tL2NhL3Rscy1jYS5j
ZXIwOQYDVR0fBDIwMDAuoCygKoYoaHR0cDovL3BraS5lc29kZW1vYXBwMi5jb20v
Y2EvdGxzLWNhLmNybDAhBgNVHREEGjAYghZncnBjX2NsaWVudC5kb21haW4uY29t
MA0GCSqGSIb3DQEBBQUAA4IBAQBt0MqwIyTnaCmDPROYjBVwELqh6uLjt5HsDMaX
92QUIHiLxP4Bg35tW9gNEZYUzig6dbROEdgtflMwtQ8Y0QL58qzU4STmE6aBEnaZ
yeT5X+dSasJWJjx6Jj/oqY4x+3KPhfIXm+6Whc5TzLfONt17lz7fxPMHrt/c83VD
OSC/7zhaKUD6gYXO4u4pkgHAM8ZSCyLdUxovV42bW6VmlA3Os/VxOrLw8tXmeQyg
ha6Oe164Gib6RcuBvh2cLpxj48wwULoa+BG+NmJZiWuRqyEaIqFTTl/JdkwvduX2
3Yw5Hpe8Y6BqLA48DP7FoljerFTTIoKZiD8TqDAq9FWcu59F
-----END CERTIFICATE-----
