Certificate:
    Data:
        Version: 3 (0x2)
        Serial Number: 8 (0x8)
        Signature Algorithm: sha1WithRSAEncryption
        Issuer: C=US, O=Google, OU=Enterprise, CN=Enterprise Subordinate CA
        Validity
            Not Before: Jul 10 19:32:03 2020 GMT
            Not After : Jul 10 19:32:03 2022 GMT
        Subject: C=US, O=Google, OU=Enterprise, CN=user@domain.com
        Subject Public Key Info:
            Public Key Algorithm: rsaEncryption
                RSA Public-Key: (2048 bit)
                Modulus:
                    00:bf:13:d7:bf:49:99:65:d1:6e:2c:84:71:ba:e9:
                    ae:a9:61:82:93:0d:cd:57:78:56:d6:8a:ce:14:9e:
                    90:cc:78:e2:7c:4c:8c:14:4a:f0:31:3c:39:11:e1:
                    6d:0b:d0:5b:8f:a5:3f:a4:50:52:c5:b3:9e:40:e4:
                    b8:ab:ae:5a:26:94:3e:6c:7c:6e:b8:c0:30:29:6e:
                    43:c8:50:1a:d7:4c:66:3e:b0:1f:62:cc:87:12:24:
                    4d:69:b4:1c:f7:75:d3:83:64:c5:5c:3f:b1:00:da:
                    49:9c:45:c8:cf:27:93:2a:81:77:96:19:f5:72:ea:
                    17:e0:c2:25:4c:e3:17:5c:30:5c:e3:9d:35:b6:a6:
                    c7:c2:eb:7b:8f:ed:8f:4f:d8:a8:64:40:06:09:5e:
                    48:85:32:7c:72:bd:9b:21:a9:54:5b:8c:75:f0:c6:
                    6d:80:6e:89:78:38:50:ce:cd:7c:77:91:27:7c:e9:
                    0f:72:01:75:36:ca:66:e0:06:5a:d7:d6:d9:c7:8e:
                    94:03:4c:de:2e:6c:a3:c7:65:13:87:e7:76:fa:4e:
                    7d:ce:d1:55:78:cd:02:c0:fe:cf:b7:29:09:00:2f:
                    95:f5:4f:7a:49:92:90:f5:58:9a:ef:f3:a3:b0:82:
                    a7:ae:3a:49:cc:4d:ad:64:26:4d:b8:fa:b5:cb:25:
                    f6:2f
                Exponent: 65537 (0x10001)
        X509v3 extensions:
            X509v3 Key Usage: critical
                Digital Signature
            X509v3 Basic Constraints: 
                CA:FALSE
            X509v3 Extended Key Usage: 
                TLS Web Client Authentication
            X509v3 Subject Key Identifier: 
                0C:75:01:6D:78:D6:ED:06:CE:06:60:59:FB:05:7C:4E:5C:8D:96:D4
            X509v3 Authority Key Identifier: 
                keyid:BF:E1:1C:F0:22:48:8F:FC:3B:CF:5D:D9:ED:AE:88:70:21:DF:DD:86

            Authority Information Access: 
                CA Issuers - URI:http://pki.esodemoapp2.com/ca/tls-ca.cer

            X509v3 CRL Distribution Points: 

                Full Name:
                  URI:http://pki.esodemoapp2.com/ca/tls-ca.crl

            X509v3 Subject Alternative Name: 
                email:user@domain.com
    Signature Algorithm: sha1WithRSAEncryption
         d0:d0:a7:db:07:0e:74:58:28:08:d0:40:37:b2:e5:43:90:64:
         14:d1:81:fb:d9:70:cb:9c:1c:90:c7:c2:36:1a:f8:ff:af:30:
         51:a8:ec:46:76:ae:42:17:e1:38:2c:d5:9d:5c:0e:b4:66:6a:
         fc:c2:3b:9c:e4:f3:09:27:eb:8e:1c:9b:35:af:10:3d:fa:d7:
         c2:10:bd:27:05:63:6f:18:ab:cb:3b:da:ee:93:f4:90:42:80:
         62:12:6b:63:d5:6c:b3:e1:13:d7:8e:df:26:6f:51:5e:a6:23:
         c9:79:bf:12:e4:1d:d3:7d:f1:7f:7a:0e:5d:15:02:43:0a:62:
         d3:40:3a:ad:07:45:4a:4e:e3:92:00:5f:c2:85:36:8d:64:49:
         49:af:e9:eb:51:82:de:a5:75:27:42:9f:da:dc:92:cd:3d:ba:
         0e:ce:53:96:11:a4:44:2a:61:ff:88:6f:d9:8f:a7:11:39:00:
         5f:4b:1e:3a:5b:ef:e4:da:d2:bf:88:1f:ff:93:0d:d1:33:7a:
         1c:1a:e0:0e:0e:31:ea:b5:07:47:3e:6c:80:9c:a4:a8:41:cc:
         af:15:c8:d2:61:6d:64:67:79:3c:d2:f9:28:d8:f2:5f:47:f2:
         33:e2:bf:2d:a4:44:ef:22:be:92:9b:3e:10:72:27:14:82:5e:
         d1:02:a9:17
-----BEGIN CERTIFICATE-----
MIIEMjCCAxqgAwIBAgIBCDANBgkqhkiG9w0BAQUFADBXMQswCQYDVQQGEwJVUzEP
MA0GA1UECgwGR29vZ2xlMRMwEQYDVQQLDApFbnRlcnByaXNlMSIwIAYDVQQDDBlF
bnRlcnByaXNlIFN1Ym9yZGluYXRlIENBMB4XDTIwMDcxMDE5MzIwM1oXDTIyMDcx
MDE5MzIwM1owTTELMAkGA1UEBhMCVVMxDzANBgNVBAoMBkdvb2dsZTETMBEGA1UE
CwwKRW50ZXJwcmlzZTEYMBYGA1UEAwwPdXNlckBkb21haW4uY29tMIIBIjANBgkq
hkiG9w0BAQEFAAOCAQ8AMIIBCgKCAQEAvxPXv0mZZdFuLIRxuumuqWGCkw3NV3hW
1orOFJ6QzHjifEyMFErwMTw5EeFtC9Bbj6U/pFBSxbOeQOS4q65aJpQ+bHxuuMAw
KW5DyFAa10xmPrAfYsyHEiRNabQc93XTg2TFXD+xANpJnEXIzyeTKoF3lhn1cuoX
4MIlTOMXXDBc4501tqbHwut7j+2PT9ioZEAGCV5IhTJ8cr2bIalUW4x18MZtgG6J
eDhQzs18d5EnfOkPcgF1Nspm4AZa19bZx46UA0zeLmyjx2UTh+d2+k59ztFVeM0C
wP7PtykJAC+V9U96SZKQ9Via7/OjsIKnrjpJzE2tZCZNuPq1yyX2LwIDAQABo4IB
ETCCAQ0wDgYDVR0PAQH/BAQDAgeAMAkGA1UdEwQCMAAwEwYDVR0lBAwwCgYIKwYB
BQUHAwIwHQYDVR0OBBYEFAx1AW141u0GzgZgWfsFfE5cjZbUMB8GA1UdIwQYMBaA
FL/hHPAiSI/8O89d2e2uiHAh392GMEQGCCsGAQUFBwEBBDgwNjA0BggrBgEFBQcw
AoYoaHR0cDovL3BraS5lc29kZW1vYXBwMi5jb20vY2EvdGxzLWNhLmNlcjA5BgNV
HR8EMjAwMC6gLKAqhihodHRwOi8vcGtpLmVzb2RlbW9hcHAyLmNvbS9jYS90bHMt
Y2EuY3JsMBoGA1UdEQQTMBGBD3VzZXJAZG9tYWluLmNvbTANBgkqhkiG9w0BAQUF
AAOCAQEA0NCn2wcOdFgoCNBAN7LlQ5BkFNGB+9lwy5wckMfCNhr4/68wUajsRnau
QhfhOCzVnVwOtGZq/MI7nOTzCSfrjhybNa8QPfrXwhC9JwVjbxiryzva7pP0kEKA
YhJrY9Vss+ET147fJm9RXqYjyXm/EuQd033xf3oOXRUCQwpi00A6rQdFSk7jkgBf
woU2jWRJSa/p61GC3qV1J0Kf2tySzT26Ds5TlhGkRCph/4hv2Y+nETkAX0seOlvv
5NrSv4gf/5MN0TN6HBrgDg4x6rUHRz5sgJykqEHMrxXI0mFtZGd5PNL5KNjyX0fy
M+K/LaRE7yK+kps+EHInFIJe0QKpFw==
-----END CERTIFICATE-----
