Certificate:
    Data:
        Version: 3 (0x2)
        Serial Number: 8 (0x8)
        Signature Algorithm: sha256WithRSAEncryption
        Issuer: C=US, O=Google, OU=Enterprise, CN=Single Root CA
        Validity
            Not Before: Mar 29 19:08:28 2024 GMT
            Not After : Mar 29 19:08:28 2034 GMT
        Subject: C=US, O=Google, OU=Enterprise, CN=grpc_client.domain.com
        Subject Public Key Info:
            Public Key Algorithm: rsaEncryption
                Public-Key: (2048 bit)
                Modulus:
                    00:d9:66:10:57:30:e2:b5:1d:81:2d:46:6a:63:bf:
                    b9:97:e9:45:b1:5d:25:69:4b:60:a7:ef:53:f6:0d:
                    5a:fa:22:49:f9:1c:05:3f:40:c7:e2:f2:a1:31:4f:
                    59:8c:75:39:f2:c9:b2:29:f9:9b:d9:fc:dc:83:e3:
                    c3:28:4d:05:9e:2d:b1:f1:4b:b8:4a:e8:cc:e6:05:
                    3f:26:e2:18:7d:97:38:ea:fd:18:88:33:3a:f2:2e:
                    c3:4c:98:2b:35:58:2b:f8:74:63:f6:28:3c:4a:79:
                    fe:de:f4:3b:0e:3a:28:5f:b1:71:23:05:cd:fa:f5:
                    5e:9a:09:2a:d9:a4:0b:a3:c8:1d:5e:04:d3:19:52:
                    30:9d:97:d3:ea:a7:d8:cc:38:00:02:06:e2:34:55:
                    9e:9c:a0:5c:4e:c2:81:ac:8b:59:57:66:de:c0:39:
                    97:bd:e0:b8:94:d9:01:73:39:3a:11:1a:52:13:43:
                    68:e9:24:8b:a6:03:5e:51:8a:4c:b0:f9:a1:4f:19:
                    7a:db:7b:e2:d5:b8:ca:cf:0f:d8:52:c7:a2:21:cd:
                    ed:6f:ef:12:06:14:d5:36:c2:da:de:18:9c:19:b3:
                    06:80:31:09:00:05:2a:5c:12:f1:89:0d:ee:42:5f:
                    f7:3b:d7:e3:56:de:cb:48:e3:5d:6b:ad:d2:f8:8f:
                    bd:29
                Exponent: 65537 (0x10001)
        X509v3 extensions:
            X509v3 Key Usage: critical
                Digital Signature
            X509v3 Basic Constraints: 
                CA:FALSE
            X509v3 Extended Key Usage: 
                TLS Web Client Authentication
            X509v3 Subject Key Identifier: 
                1A:38:82:C7:C2:D5:69:94:1D:97:31:BF:34:00:B5:ED:53:63:57:39
            X509v3 Authority Key Identifier: 
                EC:F0:EA:53:53:3F:9F:23:DC:C1:0E:31:10:37:07:DE:DE:E7:6E:F3
            Authority Information Access: 
                CA Issuers - URI:http://pki.esodemoapp2.com/ca/root-ca.cer
            X509v3 CRL Distribution Points: 
                Full Name:
                  URI:http://pki.esodemoapp2.com/ca/root-ca.crl
            X509v3 Subject Alternative Name: 
                DNS:grpc_client.domain.com
    Signature Algorithm: sha256WithRSAEncryption
    Signature Value:
        5c:13:84:59:ec:f5:20:d2:31:b7:b7:b0:51:19:ea:0c:6b:33:
        af:78:d3:85:f0:ce:5c:b2:25:d7:9b:55:cf:a2:c7:45:a9:63:
        31:04:e7:43:20:f0:98:93:57:6b:99:e0:a7:b0:90:d9:bb:ec:
        47:81:11:06:f6:7d:e8:9a:83:54:2e:fc:fa:53:a0:f3:5c:ce:
        2b:f3:db:c8:6c:c8:89:34:99:53:da:50:d3:ee:17:54:cc:70:
        3a:75:c0:06:2d:6f:36:78:54:e0:24:f8:3b:30:57:31:52:2a:
        df:35:96:77:23:44:ae:95:1b:ec:7f:26:2d:ac:29:e0:c7:04:
        e6:41:00:2e:51:a8:40:df:12:75:78:33:b5:39:5c:51:b3:4f:
        23:f4:58:80:00:55:10:47:a7:59:e5:13:a4:7c:9d:e5:5a:c1:
        4e:fd:71:ab:f5:05:aa:d6:da:88:01:24:09:a0:88:91:ae:b5:
        c6:b4:c1:10:05:15:88:21:71:ae:a5:2b:ec:b2:07:7c:3a:72:
        63:fb:27:d4:43:de:88:00:49:4e:5e:39:29:cb:bc:a6:40:67:
        17:39:a8:3c:b9:10:5b:b5:de:ae:23:89:b3:f1:58:bc:b4:ef:
        1d:a3:89:ba:22:3a:1a:16:21:1c:20:5b:e9:30:18:c8:88:32:
        11:0c:b2:82
-----BEGIN CERTIFICATE-----
MIIENzCCAx+gAwIBAgIBCDANBgkqhkiG9w0BAQsFADBMMQswCQYDVQQGEwJVUzEP
MA0GA1UECgwGR29vZ2xlMRMwEQYDVQQLDApFbnRlcnByaXNlMRcwFQYDVQQDDA5T
aW5nbGUgUm9vdCBDQTAeFw0yNDAzMjkxOTA4MjhaFw0zNDAzMjkxOTA4MjhaMFQx
CzAJBgNVBAYTAlVTMQ8wDQYDVQQKDAZHb29nbGUxEzARBgNVBAsMCkVudGVycHJp
c2UxHzAdBgNVBAMMFmdycGNfY2xpZW50LmRvbWFpbi5jb20wggEiMA0GCSqGSIb3
DQEBAQUAA4IBDwAwggEKAoIBAQDZZhBXMOK1HYEtRmpjv7mX6UWxXSVpS2Cn71P2
DVr6Ikn5HAU/QMfi8qExT1mMdTnyybIp+ZvZ/NyD48MoTQWeLbHxS7hK6MzmBT8m
4hh9lzjq/RiIMzryLsNMmCs1WCv4dGP2KDxKef7e9DsOOihfsXEjBc369V6aCSrZ
pAujyB1eBNMZUjCdl9Pqp9jMOAACBuI0VZ6coFxOwoGsi1lXZt7AOZe94LiU2QFz
OToRGlITQ2jpJIumA15Rikyw+aFPGXrbe+LVuMrPD9hSx6Ihze1v7xIGFNU2wtre
GJwZswaAMQkABSpcEvGJDe5CX/c71+NW3stI411rrdL4j70pAgMBAAGjggEaMIIB
FjAOBgNVHQ8BAf8EBAMCB4AwCQYDVR0TBAIwADATBgNVHSUEDDAKBggrBgEFBQcD
AjAdBgNVHQ4EFgQUGjiCx8LVaZQdlzG/NAC17VNjVzkwHwYDVR0jBBgwFoAU7PDq
U1M/nyPcwQ4xEDcH3t7nbvMwRQYIKwYBBQUHAQEEOTA3MDUGCCsGAQUFBzAChilo
dHRwOi8vcGtpLmVzb2RlbW9hcHAyLmNvbS9jYS9yb290LWNhLmNlcjA6BgNVHR8E
MzAxMC+gLaArhilodHRwOi8vcGtpLmVzb2RlbW9hcHAyLmNvbS9jYS9yb290LWNh
LmNybDAhBgNVHREEGjAYghZncnBjX2NsaWVudC5kb21haW4uY29tMA0GCSqGSIb3
DQEBCwUAA4IBAQBcE4RZ7PUg0jG3t7BRGeoMazOveNOF8M5csiXXm1XPosdFqWMx
BOdDIPCYk1drmeCnsJDZu+xHgREG9n3omoNULvz6U6DzXM4r89vIbMiJNJlT2lDT
7hdUzHA6dcAGLW82eFTgJPg7MFcxUirfNZZ3I0SulRvsfyYtrCngxwTmQQAuUahA
3xJ1eDO1OVxRs08j9FiAAFUQR6dZ5ROkfJ3lWsFO/XGr9QWq1tqIASQJoIiRrrXG
tMEQBRWIIXGupSvssgd8OnJj+yfUQ96IAElOXjkpy7ymQGcXOag8uRBbtd6uI4mz
8Vi8tO8do4m6IjoaFiEcIFvpMBjIiDIRDLKC
-----END CERTIFICATE-----
