Certificate:
    Data:
        Version: 3 (0x2)
        Serial Number: 6 (0x6)
        Signature Algorithm: sha256WithRSAEncryption
        Issuer: C=US, O=Google, OU=Enterprise, CN=Single Root CA
        Validity
            Not Before: Mar 29 19:05:05 2024 GMT
            Not After : Mar 29 19:05:05 2034 GMT
        Subject: C=US, O=Google, OU=Enterprise, CN=grpc.domain.com
        Subject Public Key Info:
            Public Key Algorithm: rsaEncryption
                Public-Key: (2048 bit)
                Modulus:
                    00:b4:8e:66:7c:de:d4:3f:50:8c:28:9d:28:96:ac:
                    7f:58:b6:62:4e:5b:89:d6:e1:4f:08:bb:d7:8e:70:
                    6e:77:b5:ae:82:7e:82:75:d6:4b:a4:71:43:27:40:
                    ec:60:52:af:02:f8:48:45:48:f0:fa:85:c1:10:fc:
                    c9:29:ce:1d:5c:29:e8:9a:b0:19:a1:69:d6:e5:d6:
                    9f:f6:5c:72:56:4e:22:65:8a:be:95:d3:aa:ec:fe:
                    23:76:97:c0:b7:96:7c:9d:a9:0a:ab:c1:24:15:46:
                    dc:18:50:56:64:a0:6f:1d:08:08:7c:8d:53:ac:d4:
                    07:0c:c3:35:71:35:be:f8:37:bc:cd:17:a3:65:26:
                    33:9c:14:c7:f7:bb:02:40:5f:f0:c8:d4:64:ca:05:
                    41:c5:ec:b9:86:99:2e:4a:b1:31:44:34:b2:b1:fa:
                    c7:1c:fd:05:75:9b:a6:9a:48:ba:0b:c3:04:f8:5b:
                    bd:c5:84:6f:bb:ae:43:59:50:96:c8:a1:fc:c1:1b:
                    f3:01:c3:73:41:43:7c:9c:03:d3:30:69:98:97:6b:
                    47:d8:d8:7a:f2:ba:65:27:b5:7d:fb:79:0f:b1:af:
                    bf:2a:af:39:ed:d7:f7:98:3e:5b:7d:5d:69:53:ea:
                    33:f3:9e:1e:e4:95:67:df:82:88:84:30:38:74:84:
                    00:6d
                Exponent: 65537 (0x10001)
        X509v3 extensions:
            X509v3 Key Usage: critical
                Digital Signature
            X509v3 Basic Constraints: 
                CA:FALSE
            X509v3 Extended Key Usage: 
                TLS Web Server Authentication
            X509v3 Subject Key Identifier: 
                CD:05:3A:13:8F:0F:ED:9C:2C:B9:7D:02:41:E0:6C:61:49:41:44:2D
            X509v3 Authority Key Identifier: 
                EC:F0:EA:53:53:3F:9F:23:DC:C1:0E:31:10:37:07:DE:DE:E7:6E:F3
            Authority Information Access: 
                CA Issuers - URI:http://pki.esodemoapp2.com/ca/root-ca.cer
            X509v3 CRL Distribution Points: 
                Full Name:
                  URI:http://pki.esodemoapp2.com/ca/root-ca.crl
            X509v3 Subject Alternative Name: 
                DNS:grpc.domain.com
    Signature Algorithm: sha256WithRSAEncryption
    Signature Value:
        72:82:ee:3e:53:1a:a1:98:48:92:be:96:7e:97:7a:94:0e:bc:
        35:be:14:ba:93:48:a8:31:1b:bd:eb:ca:b8:c6:53:c0:6b:96:
        02:80:d6:b4:0d:34:66:a7:c8:66:25:81:34:1c:f4:4f:36:79:
        35:0c:0a:a1:a3:59:2d:69:72:d2:6e:6f:6c:9d:79:00:d4:0c:
        d9:14:2a:a8:d7:53:fe:76:45:97:f0:93:00:0e:40:c7:79:9e:
        54:2d:15:5d:0a:b3:b1:0d:c5:f3:88:09:4a:f2:c4:a6:c8:57:
        da:3e:c5:79:3e:5c:16:f0:9a:57:23:92:dd:d3:f3:e8:b7:2f:
        7c:17:1e:0b:17:60:da:9d:64:b9:d1:36:7f:8d:14:6a:a7:a1:
        cb:10:ee:63:6d:84:1e:db:ea:38:a9:8b:2f:ec:33:23:42:37:
        1a:fa:ab:9f:bf:00:b2:43:6f:cd:5a:5c:27:aa:7a:db:86:64:
        e0:d4:26:cc:28:e7:b7:34:a7:41:09:98:74:4c:81:89:9d:30:
        4c:66:32:9b:59:6d:15:b4:a6:29:13:ed:9b:66:77:61:3f:cd:
        b6:e3:89:4a:fd:1c:93:e3:86:0a:b6:9a:92:86:7c:01:d6:b2:
        b5:50:f3:fb:35:50:7b:70:85:4a:a8:f3:f0:cf:87:47:1c:4a:
        cb:6a:eb:f1
-----BEGIN CERTIFICATE-----
MIIEKTCCAxGgAwIBAgIBBjANBgkqhkiG9w0BAQsFADBMMQswCQYDVQQGEwJVUzEP
MA0GA1UECgwGR29vZ2xlMRMwEQYDVQQLDApFbnRlcnByaXNlMRcwFQYDVQQDDA5T
aW5nbGUgUm9vdCBDQTAeFw0yNDAzMjkxOTA1MDVaFw0zNDAzMjkxOTA1MDVaME0x
CzAJBgNVBAYTAlVTMQ8wDQYDVQQKDAZHb29nbGUxEzARBgNVBAsMCkVudGVycHJp
c2UxGDAWBgNVBAMMD2dycGMuZG9tYWluLmNvbTCCASIwDQYJKoZIhvcNAQEBBQAD
ggEPADCCAQoCggEBALSOZnze1D9QjCidKJasf1i2Yk5bidbhTwi7145wbne1roJ+
gnXWS6RxQydA7GBSrwL4SEVI8PqFwRD8ySnOHVwp6JqwGaFp1uXWn/ZcclZOImWK
vpXTquz+I3aXwLeWfJ2pCqvBJBVG3BhQVmSgbx0ICHyNU6zUBwzDNXE1vvg3vM0X
o2UmM5wUx/e7AkBf8MjUZMoFQcXsuYaZLkqxMUQ0srH6xxz9BXWbpppIugvDBPhb
vcWEb7uuQ1lQlsih/MEb8wHDc0FDfJwD0zBpmJdrR9jYevK6ZSe1fft5D7Gvvyqv
Oe3X95g+W31daVPqM/OeHuSVZ9+CiIQwOHSEAG0CAwEAAaOCARMwggEPMA4GA1Ud
DwEB/wQEAwIHgDAJBgNVHRMEAjAAMBMGA1UdJQQMMAoGCCsGAQUFBwMBMB0GA1Ud
DgQWBBTNBToTjw/tnCy5fQJB4GxhSUFELTAfBgNVHSMEGDAWgBTs8OpTUz+fI9zB
DjEQNwfe3udu8zBFBggrBgEFBQcBAQQ5MDcwNQYIKwYBBQUHMAKGKWh0dHA6Ly9w
a2kuZXNvZGVtb2FwcDIuY29tL2NhL3Jvb3QtY2EuY2VyMDoGA1UdHwQzMDEwL6At
oCuGKWh0dHA6Ly9wa2kuZXNvZGVtb2FwcDIuY29tL2NhL3Jvb3QtY2EuY3JsMBoG
A1UdEQQTMBGCD2dycGMuZG9tYWluLmNvbTANBgkqhkiG9w0BAQsFAAOCAQEAcoLu
PlMaoZhIkr6Wfpd6lA68Nb4UupNIqDEbvevKuMZTwGuWAoDWtA00ZqfIZiWBNBz0
TzZ5NQwKoaNZLWly0m5vbJ15ANQM2RQqqNdT/nZFl/CTAA5Ax3meVC0VXQqzsQ3F
84gJSvLEpshX2j7FeT5cFvCaVyOS3dPz6LcvfBceCxdg2p1kudE2f40UaqehyxDu
Y22EHtvqOKmLL+wzI0I3Gvqrn78AskNvzVpcJ6p624Zk4NQmzCjntzSnQQmYdEyB
iZ0wTGYym1ltFbSmKRPtm2Z3YT/NtuOJSv0ck+OGCraakoZ8AdaytVDz+zVQe3CF
Sqjz8M+HRxxKy2rr8Q==
-----END CERTIFICATE-----
