Certificate:
    Data:
        Version: 3 (0x2)
        Serial Number: 32 (0x20)
        Signature Algorithm: sha1WithRSAEncryption
        Issuer: C=US, O=Google, OU=Enterprise, CN=Enterprise Subordinate CA
        Validity
            Not Before: Jan 27 12:06:35 2021 GMT
            Not After : Jul 20 12:06:35 2026 GMT
        Subject: C=US, O=Google, OU=Enterprise, CN=http.domain.com
        Subject Public Key Info:
            Public Key Algorithm: rsaEncryption
                RSA Public-Key: (2048 bit)
                Modulus:
                    00:98:90:f3:d6:56:99:e0:3b:40:ec:d0:73:8f:d5:
                    b5:58:23:2f:36:41:8e:2a:75:38:a4:37:f0:7f:0a:
                    a4:03:0e:4e:63:a1:fb:8d:c3:d4:af:ec:d5:cc:6e:
                    52:fb:8d:59:90:2f:c8:4b:48:c9:b1:de:89:a5:e7:
                    0a:53:05:09:08:45:11:0b:97:50:6d:2b:fa:ed:1a:
                    ec:e9:63:d3:3f:e5:31:76:1f:02:3f:b0:25:29:ef:
                    6d:75:89:bd:02:49:c0:59:48:81:ab:82:b1:5e:a1:
                    26:27:ca:fb:d0:bc:94:98:4e:46:b7:21:c5:10:9e:
                    2b:88:8c:60:1e:7c:b5:49:58:b5:c5:61:85:cc:f2:
                    10:fc:ea:c1:17:0a:50:a0:82:f3:38:29:ed:06:c1:
                    14:23:63:e2:2d:83:44:45:37:3c:9e:2a:ba:34:67:
                    80:36:10:28:2f:53:05:98:f9:c0:06:14:21:a4:47:
                    10:3c:1d:c0:44:72:4e:e1:3a:1a:89:1d:86:8c:32:
                    2b:bf:c0:66:9e:2a:9d:82:6c:43:c3:00:50:c5:37:
                    0b:60:ed:3f:75:e5:91:35:8b:14:eb:0f:57:d2:ab:
                    1e:2e:b8:b9:a8:be:f1:53:14:c5:37:c1:52:1b:ed:
                    77:b0:0c:3b:54:9a:90:04:58:ba:26:d7:f8:bc:d3:
                    08:43
                Exponent: 65537 (0x10001)
        X509v3 extensions:
            X509v3 Key Usage: critical
                Digital Signature
            X509v3 Basic Constraints: 
                CA:FALSE
            X509v3 Extended Key Usage: 
                TLS Web Server Authentication
            X509v3 Subject Key Identifier: 
                19:5C:C4:78:7D:3C:07:56:17:DD:EB:0C:F1:E1:8F:B3:38:2D:34:2D
            X509v3 Authority Key Identifier: 
                keyid:BF:E1:1C:F0:22:48:8F:FC:3B:CF:5D:D9:ED:AE:88:70:21:DF:DD:86

            Authority Information Access: 
                CA Issuers - URI:http://pki.esodemoapp2.com/ca/tls-ca.cer

            X509v3 CRL Distribution Points: 

                Full Name:
                  URI:http://pki.esodemoapp2.com/ca/tls-ca.crl

            X509v3 Subject Alternative Name: 
                DNS:http.domain.com
    Signature Algorithm: sha1WithRSAEncryption
         38:25:b4:9e:1d:f5:95:e6:fd:a0:fc:0e:eb:44:96:11:a3:b6:
         71:be:95:22:d3:8d:f0:d6:ed:c4:ad:ed:e1:8a:72:dc:3d:08:
         de:cf:fe:66:53:75:c6:08:49:ef:2a:d3:09:c7:b8:53:69:e5:
         2f:d3:06:e8:a9:03:8e:e9:22:3f:8e:75:27:c6:d8:1a:20:8f:
         79:51:c1:01:a4:24:bd:48:99:57:79:0f:47:5c:17:7c:83:57:
         21:f1:5a:53:36:7d:8c:ec:27:44:98:cc:f0:f9:4b:cc:67:a2:
         a7:b0:1d:9a:79:8e:fd:29:c3:e2:62:98:17:33:55:13:a8:5c:
         e6:8b:b2:85:06:c0:62:ad:a3:2e:9e:b8:23:c5:a2:58:05:76:
         33:8e:73:24:2c:5f:9b:5d:50:8f:dc:f2:db:8d:9e:3a:40:51:
         d9:f8:57:6e:01:77:05:f3:03:c6:b4:46:f5:0d:4b:d3:ce:66:
         ba:0e:4f:e5:ed:dc:59:fc:11:36:45:b3:01:81:89:e6:23:5a:
         e6:5b:90:97:3c:f8:65:b9:9b:81:f3:ab:75:a9:c7:9d:18:8d:
         3b:75:5c:db:c3:98:18:14:31:35:c7:9c:b6:49:af:d5:17:ca:
         cd:1c:15:5a:75:ca:6f:74:ab:b2:3a:0b:09:b4:25:d1:87:6d:
         10:1a:ae:b3
-----BEGIN CERTIFICATE-----
MIIEMjCCAxqgAwIBAgIBIDANBgkqhkiG9w0BAQUFADBXMQswCQYDVQQGEwJVUzEP
MA0GA1UECgwGR29vZ2xlMRMwEQYDVQQLDApFbnRlcnByaXNlMSIwIAYDVQQDDBlF
bnRlcnByaXNlIFN1Ym9yZGluYXRlIENBMB4XDTIxMDEyNzEyMDYzNVoXDTI2MDcy
MDEyMDYzNVowTTELMAkGA1UEBhMCVVMxDzANBgNVBAoMBkdvb2dsZTETMBEGA1UE
CwwKRW50ZXJwcmlzZTEYMBYGA1UEAwwPaHR0cC5kb21haW4uY29tMIIBIjANBgkq
hkiG9w0BAQEFAAOCAQ8AMIIBCgKCAQEAmJDz1laZ4DtA7NBzj9W1WCMvNkGOKnU4
pDfwfwqkAw5OY6H7jcPUr+zVzG5S+41ZkC/IS0jJsd6JpecKUwUJCEURC5dQbSv6
7Rrs6WPTP+Uxdh8CP7AlKe9tdYm9AknAWUiBq4KxXqEmJ8r70LyUmE5GtyHFEJ4r
iIxgHny1SVi1xWGFzPIQ/OrBFwpQoILzOCntBsEUI2PiLYNERTc8niq6NGeANhAo
L1MFmPnABhQhpEcQPB3ARHJO4ToaiR2GjDIrv8BmniqdgmxDwwBQxTcLYO0/deWR
NYsU6w9X0qseLri5qL7xUxTFN8FSG+13sAw7VJqQBFi6Jtf4vNMIQwIDAQABo4IB
ETCCAQ0wDgYDVR0PAQH/BAQDAgeAMAkGA1UdEwQCMAAwEwYDVR0lBAwwCgYIKwYB
BQUHAwEwHQYDVR0OBBYEFBlcxHh9PAdWF93rDPHhj7M4LTQtMB8GA1UdIwQYMBaA
FL/hHPAiSI/8O89d2e2uiHAh392GMEQGCCsGAQUFBwEBBDgwNjA0BggrBgEFBQcw
AoYoaHR0cDovL3BraS5lc29kZW1vYXBwMi5jb20vY2EvdGxzLWNhLmNlcjA5BgNV
HR8EMjAwMC6gLKAqhihodHRwOi8vcGtpLmVzb2RlbW9hcHAyLmNvbS9jYS90bHMt
Y2EuY3JsMBoGA1UdEQQTMBGCD2h0dHAuZG9tYWluLmNvbTANBgkqhkiG9w0BAQUF
AAOCAQEAOCW0nh31leb9oPwO60SWEaO2cb6VItON8NbtxK3t4Ypy3D0I3s/+ZlN1
xghJ7yrTCce4U2nlL9MG6KkDjukiP451J8bYGiCPeVHBAaQkvUiZV3kPR1wXfINX
IfFaUzZ9jOwnRJjM8PlLzGeip7AdmnmO/SnD4mKYFzNVE6hc5ouyhQbAYq2jLp64
I8WiWAV2M45zJCxfm11Qj9zy242eOkBR2fhXbgF3BfMDxrRG9Q1L085mug5P5e3c
WfwRNkWzAYGJ5iNa5luQlzz4ZbmbgfOrdanHnRiNO3Vc28OYGBQxNcectkmv1RfK
zRwVWnXKb3SrsjoLCbQl0YdtEBqusw==
-----END CERTIFICATE-----
