Certificate:
    Data:
        Version: 3 (0x2)
        Serial Number: 7 (0x7)
        Signature Algorithm: sha256WithRSAEncryption
        Issuer: C=US, O=Google, OU=Enterprise, CN=Single Root CA
        Validity
            Not Before: Mar 29 19:06:50 2024 GMT
            Not After : Mar 29 19:06:50 2034 GMT
        Subject: C=US, O=Google, OU=Enterprise, CN=http.domain.com
        Subject Public Key Info:
            Public Key Algorithm: rsaEncryption
                Public-Key: (2048 bit)
                Modulus:
                    00:b8:35:f3:67:2c:c8:f3:b2:ed:4d:3a:5e:7b:8b:
                    2e:59:2d:d5:d7:9f:a9:d8:46:c0:ad:bf:c4:1d:09:
                    11:03:d9:31:8a:58:cc:80:0d:4f:0d:6f:ff:27:c8:
                    10:73:74:e5:d9:f6:d9:c6:e5:a5:c5:f7:aa:82:aa:
                    06:84:e3:79:eb:fd:ab:63:a3:e0:70:bf:7c:5e:d6:
                    5b:e4:36:97:f2:72:e0:d9:1d:a5:f9:25:08:80:46:
                    f7:d7:a5:c3:fd:cd:05:80:57:58:aa:e1:4a:49:87:
                    41:47:39:f7:f2:4b:a8:80:eb:33:c0:ef:12:51:dd:
                    06:a8:93:fc:9b:f3:10:13:ed:c3:31:5a:0b:42:a0:
                    30:0b:59:4b:fe:4e:b9:0d:34:2b:2c:77:9f:ed:42:
                    45:4d:4a:41:dd:53:51:62:17:d1:ec:25:42:36:aa:
                    dd:51:00:31:9b:0f:32:01:0e:fa:40:85:c8:f5:df:
                    33:e3:6f:2a:81:9d:16:15:67:e7:49:46:97:9f:93:
                    63:7d:25:59:cd:d3:49:f3:e3:bd:7b:10:43:29:a0:
                    11:34:0a:c5:58:10:55:ed:71:05:97:e4:59:b7:da:
                    db:af:45:e3:15:22:e5:a8:d8:ea:9e:51:8a:d3:b1:
                    6e:a4:27:21:c9:b5:f5:8f:6f:2c:39:50:c8:c2:da:
                    36:73
                Exponent: 65537 (0x10001)
        X509v3 extensions:
            X509v3 Key Usage: critical
                Digital Signature
            X509v3 Basic Constraints: 
                CA:FALSE
            X509v3 Extended Key Usage: 
                TLS Web Server Authentication
            X509v3 Subject Key Identifier: 
                1D:6A:C1:70:D6:6B:44:B5:DC:79:AD:76:A6:23:BB:FA:2D:12:3F:C1
            X509v3 Authority Key Identifier: 
                EC:F0:EA:53:53:3F:9F:23:DC:C1:0E:31:10:37:07:DE:DE:E7:6E:F3
            Authority Information Access: 
                CA Issuers - URI:http://pki.esodemoapp2.com/ca/root-ca.cer
            X509v3 CRL Distribution Points: 
                Full Name:
                  URI:http://pki.esodemoapp2.com/ca/root-ca.crl
            X509v3 Subject Alternative Name: 
                DNS:http.domain.com
    Signature Algorithm: sha256WithRSAEncryption
    Signature Value:
        7f:3d:69:17:9c:37:b7:a9:6c:a2:f8:49:1d:8a:95:d2:f3:37:
        95:bf:22:32:b4:f9:d3:00:69:a7:6f:d0:31:12:5f:64:5e:20:
        73:e7:74:3b:b2:d8:97:89:d4:02:5a:4f:13:4d:79:e6:af:ab:
        29:1d:d0:c3:91:ea:dc:f0:18:7d:c6:ef:9b:61:e5:fd:44:4a:
        1d:f5:f1:a9:6d:02:8f:32:cf:04:47:1d:32:44:c6:55:e0:c6:
        b6:09:5c:3c:c2:79:5f:47:ea:51:9c:85:61:da:7a:67:09:81:
        a6:57:ed:d3:58:f3:30:dc:d2:9c:ca:06:74:72:eb:ed:b9:a1:
        b2:d6:86:1d:07:08:81:f9:c8:d2:5e:e7:25:d9:d8:ba:24:f2:
        e4:0a:8b:41:e4:50:d2:33:d1:cf:82:73:18:00:96:74:b7:d2:
        5c:84:e9:1e:8c:95:c0:92:70:bf:77:48:e2:8c:76:3e:54:41:
        cf:41:4f:5f:34:c1:ce:bd:b2:8c:2d:8a:33:3b:60:95:5a:bd:
        20:2e:16:92:fe:ec:22:25:84:70:f9:84:c7:c8:ad:a1:e1:2e:
        b8:ad:0d:df:4d:3f:1f:1e:95:3b:ce:97:86:75:fe:64:9c:01:
        d5:49:39:94:73:39:62:77:b6:cd:50:17:29:5b:4c:33:4c:0b:
        54:e0:e9:a3
-----BEGIN CERTIFICATE-----
MIIEKTCCAxGgAwIBAgIBBzANBgkqhkiG9w0BAQsFADBMMQswCQYDVQQGEwJVUzEP
MA0GA1UECgwGR29vZ2xlMRMwEQYDVQQLDApFbnRlcnByaXNlMRcwFQYDVQQDDA5T
aW5nbGUgUm9vdCBDQTAeFw0yNDAzMjkxOTA2NTBaFw0zNDAzMjkxOTA2NTBaME0x
CzAJBgNVBAYTAlVTMQ8wDQYDVQQKDAZHb29nbGUxEzARBgNVBAsMCkVudGVycHJp
c2UxGDAWBgNVBAMMD2h0dHAuZG9tYWluLmNvbTCCASIwDQYJKoZIhvcNAQEBBQAD
ggEPADCCAQoCggEBALg182csyPOy7U06XnuLLlkt1defqdhGwK2/xB0JEQPZMYpY
zIANTw1v/yfIEHN05dn22cblpcX3qoKqBoTjeev9q2Oj4HC/fF7WW+Q2l/Jy4Nkd
pfklCIBG99elw/3NBYBXWKrhSkmHQUc59/JLqIDrM8DvElHdBqiT/JvzEBPtwzFa
C0KgMAtZS/5OuQ00Kyx3n+1CRU1KQd1TUWIX0ewlQjaq3VEAMZsPMgEO+kCFyPXf
M+NvKoGdFhVn50lGl5+TY30lWc3TSfPjvXsQQymgETQKxVgQVe1xBZfkWbfa269F
4xUi5ajY6p5RitOxbqQnIcm19Y9vLDlQyMLaNnMCAwEAAaOCARMwggEPMA4GA1Ud
DwEB/wQEAwIHgDAJBgNVHRMEAjAAMBMGA1UdJQQMMAoGCCsGAQUFBwMBMB0GA1Ud
DgQWBBQdasFw1mtEtdx5rXamI7v6LRI/wTAfBgNVHSMEGDAWgBTs8OpTUz+fI9zB
DjEQNwfe3udu8zBFBggrBgEFBQcBAQQ5MDcwNQYIKwYBBQUHMAKGKWh0dHA6Ly9w
a2kuZXNvZGVtb2FwcDIuY29tL2NhL3Jvb3QtY2EuY2VyMDoGA1UdHwQzMDEwL6At
oCuGKWh0dHA6Ly9wa2kuZXNvZGVtb2FwcDIuY29tL2NhL3Jvb3QtY2EuY3JsMBoG
A1UdEQQTMBGCD2h0dHAuZG9tYWluLmNvbTANBgkqhkiG9w0BAQsFAAOCAQEAfz1p
F5w3t6lsovhJHYqV0vM3lb8iMrT50wBpp2/QMRJfZF4gc+d0O7LYl4nUAlpPE015
5q+rKR3Qw5Hq3PAYfcbvm2Hl/URKHfXxqW0CjzLPBEcdMkTGVeDGtglcPMJ5X0fq
UZyFYdp6ZwmBplft01jzMNzSnMoGdHLr7bmhstaGHQcIgfnI0l7nJdnYuiTy5AqL
QeRQ0jPRz4JzGACWdLfSXITpHoyVwJJwv3dI4ox2PlRBz0FPXzTBzr2yjC2KMztg
lVq9IC4Wkv7sIiWEcPmEx8itoeEuuK0N300/Hx6VO86XhnX+ZJwB1Uk5lHM5Yne2
zVAXKVtMM0wLVODpow==
-----END CERTIFICATE-----
