Certificate:
    Data:
        Version: 3 (0x2)
        Serial Number: 9 (0x9)
        Signature Algorithm: sha256WithRSAEncryption
        Issuer: C=US, O=Google, OU=Enterprise, CN=Single Root CA
        Validity
            Not Before: Mar 30 00:28:45 2024 GMT
            Not After : Mar 30 00:28:45 2034 GMT
        Subject: C=US, O=Google, OU=Enterprise, CN=proxy_client.domain.com
        Subject Public Key Info:
            Public Key Algorithm: rsaEncryption
                Public-Key: (2048 bit)
                Modulus:
                    00:b3:ed:2a:8e:be:04:0a:a1:94:59:1c:a9:f2:89:
                    7f:3d:c0:4f:7f:9b:14:35:76:34:07:c4:6e:a7:88:
                    ff:d1:73:e2:5e:16:6c:c0:46:ba:04:33:3f:8f:5d:
                    39:7d:73:f4:15:5b:f7:ae:58:66:74:97:43:8c:93:
                    b7:45:72:91:b3:08:ed:79:27:27:e9:ec:aa:38:59:
                    68:88:57:e1:f6:43:86:20:e2:f1:fd:9d:6d:b0:48:
                    73:f3:11:9a:55:97:da:91:b9:7b:c2:d5:a4:4b:f9:
                    0e:29:c6:2f:3c:88:e7:19:e3:0d:3c:8c:7a:ce:94:
                    d1:58:d2:e6:74:db:45:f8:be:f9:47:04:cd:f8:7f:
                    21:8e:44:92:e3:dc:a2:85:69:63:bf:07:74:49:46:
                    e2:1d:12:26:ec:17:d9:46:b6:12:b6:6f:2c:51:9b:
                    1b:f4:d1:ed:de:35:46:83:0d:dd:7d:79:ee:cc:c1:
                    a6:89:0b:b6:9d:9f:e9:7b:4a:5a:b4:16:4b:79:7e:
                    1c:13:ad:af:f7:e1:66:f5:99:07:a0:04:cf:6b:97:
                    f3:45:80:93:65:90:fc:3a:2d:24:a0:c5:da:c4:a0:
                    d7:1f:c7:03:49:cf:40:58:13:ab:74:a4:82:a5:4e:
                    69:48:c1:cc:20:35:85:cb:90:a5:0c:ba:61:e0:cc:
                    ba:6d
                Exponent: 65537 (0x10001)
        X509v3 extensions:
            X509v3 Key Usage: critical
                Digital Signature
            X509v3 Basic Constraints: 
                CA:FALSE
            X509v3 Extended Key Usage: 
                TLS Web Client Authentication
            X509v3 Subject Key Identifier: 
                30:BE:F6:51:AC:AA:26:FD:95:0A:AB:CE:16:A8:72:90:50:7B:0D:3B
            X509v3 Authority Key Identifier: 
                EC:F0:EA:53:53:3F:9F:23:DC:C1:0E:31:10:37:07:DE:DE:E7:6E:F3
            Authority Information Access: 
                CA Issuers - URI:http://pki.esodemoapp2.com/ca/root-ca.cer
            X509v3 CRL Distribution Points: 
                Full Name:
                  URI:http://pki.esodemoapp2.com/ca/root-ca.crl
            X509v3 Subject Alternative Name: 
                DNS:proxy_client.domain.com
    Signature Algorithm: sha256WithRSAEncryption
    Signature Value:
        a0:0c:ca:43:47:39:d3:fb:f1:04:b1:21:23:12:32:f8:e1:01:
        68:6a:8a:1c:c4:b3:89:92:4e:3a:d7:3e:9b:27:0b:60:59:52:
        fd:ba:9f:7f:cd:5a:92:7c:b9:0c:52:3b:9b:73:36:c5:5a:51:
        83:d4:15:c9:ee:d8:2f:13:cd:c0:63:11:c2:34:c9:ac:f7:3e:
        a2:0f:c2:26:e2:90:1c:1f:73:0f:c6:be:55:f9:43:8c:d4:0e:
        8b:49:28:b4:11:79:65:89:36:4e:fa:27:82:c7:2f:60:a5:b6:
        52:9f:10:ee:03:5a:87:f6:0e:f5:02:51:cb:27:82:4f:87:2c:
        60:95:5e:fc:87:1e:73:b9:d2:38:fd:08:aa:8b:4f:32:c5:a0:
        22:37:8d:70:f6:df:28:7d:26:4f:35:8c:24:db:9d:43:3e:7c:
        91:b2:5e:fd:86:de:dd:ef:86:8b:8b:5f:63:77:6d:b3:e2:d6:
        3e:f9:92:75:66:61:b0:0e:85:1e:68:6a:5b:f1:fe:15:34:ec:
        f1:20:d9:06:19:87:48:92:06:f7:de:14:cb:07:4c:05:3e:3e:
        f1:8c:2b:b2:dd:6e:e7:47:65:d5:55:d2:ba:48:8a:12:91:07:
        00:e6:d1:8e:49:0b:bc:ab:d4:25:48:6f:4f:9e:7f:9b:54:47:
        cb:a9:2b:97
-----BEGIN CERTIFICATE-----
MIIEOTCCAyGgAwIBAgIBCTANBgkqhkiG9w0BAQsFADBMMQswCQYDVQQGEwJVUzEP
MA0GA1UECgwGR29vZ2xlMRMwEQYDVQQLDApFbnRlcnByaXNlMRcwFQYDVQQDDA5T
aW5nbGUgUm9vdCBDQTAeFw0yNDAzMzAwMDI4NDVaFw0zNDAzMzAwMDI4NDVaMFUx
CzAJBgNVBAYTAlVTMQ8wDQYDVQQKDAZHb29nbGUxEzARBgNVBAsMCkVudGVycHJp
c2UxIDAeBgNVBAMMF3Byb3h5X2NsaWVudC5kb21haW4uY29tMIIBIjANBgkqhkiG
9w0BAQEFAAOCAQ8AMIIBCgKCAQEAs+0qjr4ECqGUWRyp8ol/PcBPf5sUNXY0B8Ru
p4j/0XPiXhZswEa6BDM/j105fXP0FVv3rlhmdJdDjJO3RXKRswjteScn6eyqOFlo
iFfh9kOGIOLx/Z1tsEhz8xGaVZfakbl7wtWkS/kOKcYvPIjnGeMNPIx6zpTRWNLm
dNtF+L75RwTN+H8hjkSS49yihWljvwd0SUbiHRIm7BfZRrYStm8sUZsb9NHt3jVG
gw3dfXnuzMGmiQu2nZ/pe0patBZLeX4cE62v9+Fm9ZkHoATPa5fzRYCTZZD8Oi0k
oMXaxKDXH8cDSc9AWBOrdKSCpU5pSMHMIDWFy5ClDLph4My6bQIDAQABo4IBGzCC
ARcwDgYDVR0PAQH/BAQDAgeAMAkGA1UdEwQCMAAwEwYDVR0lBAwwCgYIKwYBBQUH
AwIwHQYDVR0OBBYEFDC+9lGsqib9lQqrzhaocpBQew07MB8GA1UdIwQYMBaAFOzw
6lNTP58j3MEOMRA3B97e527zMEUGCCsGAQUFBwEBBDkwNzA1BggrBgEFBQcwAoYp
aHR0cDovL3BraS5lc29kZW1vYXBwMi5jb20vY2Evcm9vdC1jYS5jZXIwOgYDVR0f
BDMwMTAvoC2gK4YpaHR0cDovL3BraS5lc29kZW1vYXBwMi5jb20vY2Evcm9vdC1j
YS5jcmwwIgYDVR0RBBswGYIXcHJveHlfY2xpZW50LmRvbWFpbi5jb20wDQYJKoZI
hvcNAQELBQADggEBAKAMykNHOdP78QSxISMSMvjhAWhqihzEs4mSTjrXPpsnC2BZ
Uv26n3/NWpJ8uQxSO5tzNsVaUYPUFcnu2C8TzcBjEcI0yaz3PqIPwibikBwfcw/G
vlX5Q4zUDotJKLQReWWJNk76J4LHL2CltlKfEO4DWof2DvUCUcsngk+HLGCVXvyH
HnO50jj9CKqLTzLFoCI3jXD23yh9Jk81jCTbnUM+fJGyXv2G3t3vhouLX2N3bbPi
1j75knVmYbAOhR5oalvx/hU07PEg2QYZh0iSBvfeFMsHTAU+PvGMK7LdbudHZdVV
0rpIihKRBwDm0Y5JC7yr1CVIb0+ef5tUR8upK5c=
-----END CERTIFICATE-----
